target datalayout = "e-m:e-p270:32:32-p271:32:32-p272:64:64-i64:64-i128:128-f80:128-n8:16:32:64-S128"
target triple = "x86_64-pc-linux-gnu"

; Function Attrs: nounwind uwtable
define internal i32 @md_write(ptr noundef %0, ptr noundef %1, i32 noundef %2) #0 {
  %4 = alloca i32, align 4
  %5 = alloca ptr, align 8
  %6 = alloca ptr, align 8
  %7 = alloca i32, align 4
  %8 = alloca i32, align 4
  %9 = alloca ptr, align 8
  %10 = alloca ptr, align 8
  %11 = alloca i32, align 4
  store ptr %0, ptr %5, align 8, !tbaa !3
  store ptr %1, ptr %6, align 8, !tbaa !8
  store i32 %2, ptr %7, align 4, !tbaa !10
  call void @llvm.lifetime.start.p0(i64 4, ptr %8) #3
  store i32 0, ptr %8, align 4, !tbaa !10
  call void @llvm.lifetime.start.p0(i64 8, ptr %9) #3
  call void @llvm.lifetime.start.p0(i64 8, ptr %10) #3
  %12 = load ptr, ptr %6, align 8, !tbaa !8
  %13 = icmp eq ptr %12, null
  br i1 %13, label %17, label %14

14:                                               ; preds = %3
  %15 = load i32, ptr %7, align 4, !tbaa !10
  %16 = icmp sle i32 %15, 0
  br i1 %16, label %17, label %18

17:                                               ; preds = %14, %3
  store i32 0, ptr %4, align 4
  store i32 1, ptr %11, align 4
  br label %59

18:                                               ; preds = %14
  %19 = load ptr, ptr %5, align 8, !tbaa !3
  %20 = call ptr @BIO_get_data(ptr noundef %19)
  store ptr %20, ptr %9, align 8, !tbaa !12
  %21 = load ptr, ptr %5, align 8, !tbaa !3
  %22 = call ptr @BIO_next(ptr noundef %21)
  store ptr %22, ptr %10, align 8, !tbaa !3
  %23 = load ptr, ptr %9, align 8, !tbaa !12
  %24 = icmp ne ptr %23, null
  br i1 %24, label %25, label %33

25:                                               ; preds = %18
  %26 = load ptr, ptr %10, align 8, !tbaa !3
  %27 = icmp ne ptr %26, null
  br i1 %27, label %28, label %33

28:                                               ; preds = %25
  %29 = load ptr, ptr %10, align 8, !tbaa !3
  %30 = load ptr, ptr %6, align 8, !tbaa !8
  %31 = load i32, ptr %7, align 4, !tbaa !10
  %32 = call i32 @BIO_write(ptr noundef %29, ptr noundef %30, i32 noundef %31)
  store i32 %32, ptr %8, align 4, !tbaa !10
  br label %33

33:                                               ; preds = %28, %25, %18
  %34 = load ptr, ptr %5, align 8, !tbaa !3
  %35 = call i32 @BIO_get_init(ptr noundef %34)
  %36 = icmp ne i32 %35, 0
  br i1 %36, label %37, label %51

37:                                               ; preds = %33
  %38 = load i32, ptr %8, align 4, !tbaa !10
  %39 = icmp sgt i32 %38, 0
  br i1 %39, label %40, label %50

40:                                               ; preds = %37
  %41 = load ptr, ptr %9, align 8, !tbaa !12
  %42 = load ptr, ptr %6, align 8, !tbaa !8
  %43 = load i32, ptr %8, align 4, !tbaa !10
  %44 = zext i32 %43 to i64
  %45 = call i32 @EVP_DigestUpdate(ptr noundef %41, ptr noundef %42, i64 noundef %44)
  %46 = icmp ne i32 %45, 0
  br i1 %46, label %49, label %47

47:                                               ; preds = %40
  %48 = load ptr, ptr %5, align 8, !tbaa !3
  call void @BIO_clear_flags(ptr noundef %48, i32 noundef 15)
  store i32 0, ptr %4, align 4
  store i32 1, ptr %11, align 4
  br label %59

49:                                               ; preds = %40
  br label %50

50:                                               ; preds = %49, %37
  br label %51

51:                                               ; preds = %50, %33
  %52 = load ptr, ptr %10, align 8, !tbaa !3
  %53 = icmp ne ptr %52, null
  br i1 %53, label %54, label %57

54:                                               ; preds = %51
  %55 = load ptr, ptr %5, align 8, !tbaa !3
  call void @BIO_clear_flags(ptr noundef %55, i32 noundef 15)
  %56 = load ptr, ptr %5, align 8, !tbaa !3
  call void @BIO_copy_next_retry(ptr noundef %56)
  br label %57

57:                                               ; preds = %54, %51
  %58 = load i32, ptr %8, align 4, !tbaa !10
  store i32 %58, ptr %4, align 4
  store i32 1, ptr %11, align 4
  br label %59

59:                                               ; preds = %57, %47, %17
  call void @llvm.lifetime.end.p0(i64 8, ptr %10) #3
  call void @llvm.lifetime.end.p0(i64 8, ptr %9) #3
  call void @llvm.lifetime.end.p0(i64 4, ptr %8) #3
  %60 = load i32, ptr %4, align 4
  ret i32 %60
}