; Function Attrs: nounwind uwtable
define internal i32 @md_write(ptr noundef %0, ptr noundef %1, i32 noundef %2) #2 {
  %4 = icmp eq ptr %1, null
  %5 = icmp slt i32 %2, 1
  %or.cond = or i1 %4, %5
  br i1 %or.cond, label %23, label %6

6:                                                ; preds = %3
  %7 = tail call ptr @BIO_get_data(ptr noundef %0) #4
  %8 = tail call ptr @BIO_next(ptr noundef %0) #4
  %9 = icmp ne ptr %7, null
  %10 = icmp ne ptr %8, null
  %or.cond3 = select i1 %9, i1 %10, i1 false
  br i1 %or.cond3, label %11, label %13

11:                                               ; preds = %6
  %12 = tail call i32 @BIO_write(ptr noundef nonnull %8, ptr noundef nonnull %1, i32 noundef %2) #4
  br label %13

13:                                               ; preds = %11, %6
  %.024 = phi i32 [ %12, %11 ], [ 0, %6 ]
  %14 = tail call i32 @BIO_get_init(ptr noundef %0) #4
  %15 = icmp ne i32 %14, 0
  %16 = icmp sgt i32 %.024, 0
  %or.cond5 = select i1 %15, i1 %16, i1 false
  br i1 %or.cond5, label %17, label %21

17:                                               ; preds = %13
  %18 = zext nneg i32 %.024 to i64
  %19 = tail call i32 @EVP_DigestUpdate(ptr noundef %7, ptr noundef nonnull %1, i64 noundef %18) #4
  %.not = icmp eq i32 %19, 0
  br i1 %.not, label %20, label %21

20:                                               ; preds = %17
  tail call void @BIO_clear_flags(ptr noundef %0, i32 noundef 15) #4
  br label %23

21:                                               ; preds = %17, %13
  br i1 %10, label %22, label %23

22:                                               ; preds = %21
  tail call void @BIO_clear_flags(ptr noundef %0, i32 noundef 15) #4
  tail call void @BIO_copy_next_retry(ptr noundef %0) #4
  br label %23

23:                                               ; preds = %21, %22, %3, %20
  %.0 = phi i32 [ 0, %20 ], [ 0, %3 ], [ %.024, %22 ], [ %.024, %21 ]
  ret i32 %.0
}